; Function Attrs: nounwind uwtable
define ptr @l___private_Lean_Compiler_IR_RC_0__Lean_IR_ExplicitRC_addIncBeforeConsumeAll(ptr noundef readonly captures(none) %0, ptr noundef readonly captures(none) %1, ptr noundef %2, ptr noundef %3) local_unnamed_addr #0 {
  %5 = load ptr, ptr @l___private_Lean_Compiler_IR_RC_0__Lean_IR_ExplicitRC_addIncBeforeConsumeAll___closed__1, align 8, !tbaa !4
  %6 = getelementptr i8, ptr %1, i64 8
  %.val.i = load i64, ptr %6, align 8, !tbaa !13
  %7 = shl i64 %.val.i, 1
  %8 = or disjoint i64 %7, 1
  %9 = inttoptr i64 %8 to ptr
  %10 = tail call ptr @l_Nat_foldTR_loop___at___private_Lean_Compiler_IR_RC_0__Lean_IR_ExplicitRC_addIncBeforeAux___spec__1(ptr noundef readonly %0, ptr noundef readonly %1, ptr noundef %5, ptr noundef %3, ptr noundef nonnull %9, ptr noundef nonnull %9, ptr nonnull poison, ptr noundef %2)
  ret ptr %10
}